; Function Attrs: mustprogress nounwind uwtable
define hidden noundef i32 @_ZNK4ncnn3Exp15forward_inplaceERNS_3MatERKNS_6OptionE(ptr noundef nonnull align 8 dereferenceable(220) %0, ptr noundef nonnull align 8 dereferenceable(72) %1, ptr noundef nonnull readonly align 8 captures(none) dereferenceable(64) %2) unnamed_addr #4 align 2 {
  %4 = alloca i32, align 4
  %5 = alloca i32, align 4
  %6 = tail call i32 @__kmpc_global_thread_num(ptr nonnull @2)
  %7 = getelementptr inbounds nuw i8, ptr %1, i64 44
  %8 = load i32, ptr %7, align 4, !tbaa !29
  %9 = getelementptr inbounds nuw i8, ptr %1, i64 48
  %10 = load i32, ptr %9, align 8, !tbaa !32
  call void @llvm.lifetime.start.p0(i64 4, ptr nonnull %4) #7
  %11 = getelementptr inbounds nuw i8, ptr %1, i64 56
  %12 = load i32, ptr %11, align 8, !tbaa !33
  store i32 %12, ptr %4, align 4, !tbaa !34
  call void @llvm.lifetime.start.p0(i64 4, ptr nonnull %5) #7
  %13 = mul nsw i32 %10, %8
  store i32 %13, ptr %5, align 4, !tbaa !34
  %14 = getelementptr inbounds nuw i8, ptr %0, i64 208
  %15 = load float, ptr %14, align 8, !tbaa !4
  %16 = fcmp fast oeq float %15, -1.000000e+00
  %17 = getelementptr inbounds nuw i8, ptr %2, i64 4
  %18 = load i32, ptr %17, align 4, !tbaa !35
  tail call void @__kmpc_push_num_threads(ptr nonnull @2, i32 %6, i32 %18)
  %_ZNK4ncnn3Exp15forward_inplaceERNS_3MatERKNS_6OptionE.omp_outlined._ZNK4ncnn3Exp15forward_inplaceERNS_3MatERKNS_6OptionE.omp_outlined.1 = select i1 %16, ptr @_ZNK4ncnn3Exp15forward_inplaceERNS_3MatERKNS_6OptionE.omp_outlined, ptr @_ZNK4ncnn3Exp15forward_inplaceERNS_3MatERKNS_6OptionE.omp_outlined.1
  call void (ptr, i32, ptr, ...) @__kmpc_fork_call(ptr nonnull @2, i32 4, ptr nonnull %_ZNK4ncnn3Exp15forward_inplaceERNS_3MatERKNS_6OptionE.omp_outlined._ZNK4ncnn3Exp15forward_inplaceERNS_3MatERKNS_6OptionE.omp_outlined.1, ptr nonnull %4, ptr nonnull %1, ptr nonnull %5, ptr nonnull %0)
  call void @llvm.lifetime.end.p0(i64 4, ptr nonnull %5) #7
  call void @llvm.lifetime.end.p0(i64 4, ptr nonnull %4) #7
  ret i32 0
}